; Function Attrs: nounwind uwtable
define noundef ptr @Abc_NodeFindCone_rec(ptr noundef %0) local_unnamed_addr #0 {
  %2 = alloca ptr, align 8
  %3 = alloca ptr, align 8
  call void @llvm.lifetime.start.p0(i64 8, ptr nonnull %2) #13
  call void @llvm.lifetime.start.p0(i64 8, ptr nonnull %3) #13
  %4 = getelementptr i8, ptr %0, i64 20
  %.val35 = load i32, ptr %4, align 4
  %5 = and i32 %.val35, 15
  switch i32 %5, label %6 [
    i32 5, label %.critedge2
    i32 2, label %.critedge2
  ]

6:                                                ; preds = %1
  %7 = tail call noalias dereferenceable_or_null(16) ptr @malloc(i64 noundef 16) #14
  %8 = getelementptr inbounds nuw i8, ptr %7, i64 4
  store i32 0, ptr %8, align 4, !tbaa !24
  store i32 8, ptr %7, align 8, !tbaa !56
  %9 = tail call noalias dereferenceable_or_null(64) ptr @malloc(i64 noundef 64) #14
  %10 = getelementptr inbounds nuw i8, ptr %7, i64 8
  store ptr %9, ptr %10, align 8, !tbaa !26
  %11 = tail call i32 @Abc_NodeIsMuxType(ptr noundef nonnull %0) #13
  %.not30 = icmp eq i32 %11, 0
  br i1 %.not30, label %36, label %12

12:                                               ; preds = %6
  %13 = call ptr @Abc_NodeRecognizeMux(ptr noundef nonnull %0, ptr noundef nonnull %2, ptr noundef nonnull %3) #13
  %14 = ptrtoint ptr %13 to i64
  %15 = and i64 %14, -2
  %16 = inttoptr i64 %15 to ptr
  store i32 1, ptr %8, align 4, !tbaa !24
  store ptr %16, ptr %9, align 8, !tbaa !27
  %17 = load ptr, ptr %2, align 8, !tbaa !57
  %18 = ptrtoint ptr %17 to i64
  %19 = and i64 %18, -2
  %20 = icmp eq i64 %15, %19
  br i1 %20, label %.lr.ph.i45, label %Vec_PtrPush.exit.i

Vec_PtrPush.exit.i:                               ; preds = %12
  %21 = inttoptr i64 %19 to ptr
  store i32 2, ptr %8, align 4, !tbaa !24
  %22 = getelementptr inbounds nuw i8, ptr %9, i64 8
  store ptr %21, ptr %22, align 8, !tbaa !27
  br label %.lr.ph.i45

.lr.ph.i45:                                       ; preds = %Vec_PtrPush.exit.i, %12
  %23 = phi i32 [ 2, %Vec_PtrPush.exit.i ], [ 1, %12 ]
  %24 = load ptr, ptr %3, align 8, !tbaa !57
  %25 = ptrtoint ptr %24 to i64
  %26 = and i64 %25, -2
  %27 = inttoptr i64 %26 to ptr
  %wide.trip.count.i46 = zext nneg i32 %23 to i64
  br label %29

28:                                               ; preds = %29
  %indvars.iv.next.i48 = add nuw nsw i64 %indvars.iv.i47, 1
  %exitcond.not.i49 = icmp eq i64 %indvars.iv.next.i48, %wide.trip.count.i46
  br i1 %exitcond.not.i49, label %Vec_PtrPush.exit.i40, label %29, !llvm.loop !58

29:                                               ; preds = %28, %.lr.ph.i45
  %indvars.iv.i47 = phi i64 [ 0, %.lr.ph.i45 ], [ %indvars.iv.next.i48, %28 ]
  %30 = getelementptr inbounds nuw ptr, ptr %9, i64 %indvars.iv.i47
  %31 = load ptr, ptr %30, align 8, !tbaa !27
  %32 = icmp eq ptr %31, %27
  br i1 %32, label %.lr.ph57.preheader, label %28

Vec_PtrPush.exit.i40:                             ; preds = %28
  %33 = add nuw nsw i32 %23, 1
  store i32 %33, ptr %8, align 4, !tbaa !24
  %34 = zext nneg i32 %23 to i64
  %35 = getelementptr inbounds nuw ptr, ptr %9, i64 %34
  store ptr %27, ptr %35, align 8, !tbaa !27
  br label %.lr.ph57.preheader

36:                                               ; preds = %6
  %37 = tail call fastcc i32 @Abc_NodeBalanceCone_rec(ptr noundef nonnull %0, ptr noundef nonnull %7, i32 noundef 1, i32 noundef 1, i32 noundef 0)
  %.val3253 = load i32, ptr %8, align 4, !tbaa !24
  %38 = icmp sgt i32 %.val3253, 0
  br i1 %38, label %.lr.ph, label %.critedge

.lr.ph:                                           ; preds = %36, %.lr.ph
  %indvars.iv = phi i64 [ %indvars.iv.next, %.lr.ph ], [ 0, %36 ]
  %.val34 = load ptr, ptr %10, align 8, !tbaa !26
  %39 = getelementptr inbounds nuw ptr, ptr %.val34, i64 %indvars.iv
  %40 = load ptr, ptr %39, align 8, !tbaa !27
  %41 = ptrtoint ptr %40 to i64
  %42 = and i64 %41, -2
  %43 = inttoptr i64 %42 to ptr
  %44 = getelementptr inbounds nuw i8, ptr %43, i64 20
  %45 = load i32, ptr %44, align 4
  %46 = and i32 %45, -33
  store i32 %46, ptr %44, align 4
  %indvars.iv.next = add nuw nsw i64 %indvars.iv, 1
  %.val32 = load i32, ptr %8, align 4, !tbaa !24
  %47 = sext i32 %.val32 to i64
  %48 = icmp slt i64 %indvars.iv.next, %47
  br i1 %48, label %.lr.ph, label %.critedge, !llvm.loop !59

.critedge:                                        ; preds = %.lr.ph, %36
  %.val5563 = phi i32 [ %.val3253, %36 ], [ %.val32, %.lr.ph ]
  %49 = icmp eq i32 %37, -1
  br i1 %49, label %Vec_PtrPushUnique.exit50.thread68, label %Vec_PtrPushUnique.exit50

Vec_PtrPushUnique.exit50.thread68:                ; preds = %.critedge
  store i32 0, ptr %8, align 4, !tbaa !24
  br label %.critedge2

Vec_PtrPushUnique.exit50:                         ; preds = %.critedge
  %50 = icmp sgt i32 %.val5563, 0
  br i1 %50, label %.lr.ph57.preheader, label %.critedge2

.lr.ph57.preheader:                               ; preds = %29, %Vec_PtrPush.exit.i40, %Vec_PtrPushUnique.exit50
  %.val64.ph = phi i32 [ %33, %Vec_PtrPush.exit.i40 ], [ %.val5563, %Vec_PtrPushUnique.exit50 ], [ %23, %29 ]
  br label %.lr.ph57

.lr.ph57:                                         ; preds = %.lr.ph57.preheader, %60
  %.val64 = phi i32 [ %.val, %60 ], [ %.val64.ph, %.lr.ph57.preheader ]
  %indvars.iv59 = phi i64 [ %indvars.iv.next60, %60 ], [ 0, %.lr.ph57.preheader ]
  %.val33 = load ptr, ptr %10, align 8, !tbaa !26
  %51 = getelementptr inbounds nuw ptr, ptr %.val33, i64 %indvars.iv59
  %52 = load ptr, ptr %51, align 8, !tbaa !27
  %53 = ptrtoint ptr %52 to i64
  %54 = and i64 %53, -2
  %55 = inttoptr i64 %54 to ptr
  %56 = getelementptr inbounds nuw i8, ptr %55, i64 64
  %57 = load ptr, ptr %56, align 8, !tbaa !34
  %.not31 = icmp eq ptr %57, null
  br i1 %.not31, label %58, label %60

58:                                               ; preds = %.lr.ph57
  %59 = call ptr @Abc_NodeFindCone_rec(ptr noundef nonnull %55)
  store ptr %59, ptr %56, align 8, !tbaa !34
  %.val.pre = load i32, ptr %8, align 4, !tbaa !24
  br label %60

60:                                               ; preds = %.lr.ph57, %58
  %.val = phi i32 [ %.val64, %.lr.ph57 ], [ %.val.pre, %58 ]
  %indvars.iv.next60 = add nuw nsw i64 %indvars.iv59, 1
  %61 = sext i32 %.val to i64
  %62 = icmp slt i64 %indvars.iv.next60, %61
  br i1 %62, label %.lr.ph57, label %.critedge2, !llvm.loop !60

.critedge2:                                       ; preds = %60, %Vec_PtrPushUnique.exit50.thread68, %Vec_PtrPushUnique.exit50, %1, %1
  %.029 = phi ptr [ null, %1 ], [ null, %1 ], [ %7, %Vec_PtrPushUnique.exit50 ], [ %7, %Vec_PtrPushUnique.exit50.thread68 ], [ %7, %60 ]
  call void @llvm.lifetime.end.p0(i64 8, ptr nonnull %3) #13
  call void @llvm.lifetime.end.p0(i64 8, ptr nonnull %2) #13
  ret ptr %.029
}